; Function Attrs: nounwind sspstrong uwtable
define internal i64 @path_sub(i32 noundef %0, ptr noundef %1, i64 noundef %2) #0 {
  %4 = alloca i64, align 8
  call void @llvm.lifetime.start.p0(i64 8, ptr nonnull %4) #7
  %5 = load i64, ptr @id_at_path, align 8, !tbaa !6
  %6 = tail call i64 @rb_ivar_get(i64 noundef %2, i64 noundef %5) #7
  %7 = icmp eq i64 %6, 0
  %8 = and i64 %6, 7
  %9 = icmp ne i64 %8, 0
  %10 = or i1 %7, %9
  br i1 %10, label %rbimpl_RB_TYPE_P_fastpath.exit.thread.i, label %rbimpl_RB_TYPE_P_fastpath.exit.i

rbimpl_RB_TYPE_P_fastpath.exit.i:                 ; preds = %3
  %11 = inttoptr i64 %6 to ptr
  %12 = load i64, ptr %11, align 8, !tbaa !10
  %13 = and i64 %12, 31
  %14 = icmp eq i64 %13, 5
  br i1 %14, label %get_strpath.exit, label %rbimpl_RB_TYPE_P_fastpath.exit.thread.i

rbimpl_RB_TYPE_P_fastpath.exit.thread.i:          ; preds = %rbimpl_RB_TYPE_P_fastpath.exit.i, %3
  %15 = load i64, ptr @rb_eTypeError, align 8, !tbaa !6
  tail call void (i64, ptr, ...) @rb_raise(i64 noundef %15, ptr noundef nonnull @.str.91) #9
  unreachable

get_strpath.exit:                                 ; preds = %rbimpl_RB_TYPE_P_fastpath.exit.i
  %16 = tail call i32 @rb_block_given_p() #7
  %.not = icmp eq i32 %16, 0
  %17 = load i64, ptr @id_sub, align 8, !tbaa !6
  br i1 %.not, label %20, label %18

18:                                               ; preds = %get_strpath.exit
  %19 = tail call i64 @rb_block_call(i64 noundef %6, i64 noundef %17, i32 noundef %0, ptr noundef %1, ptr noundef null, i64 noundef 0) #7
  br label %22

20:                                               ; preds = %get_strpath.exit
  %21 = tail call i64 @rb_funcallv(i64 noundef %6, i64 noundef %17, i32 noundef %0, ptr noundef %1) #7
  br label %22

22:                                               ; preds = %20, %18
  %storemerge = phi i64 [ %21, %20 ], [ %19, %18 ]
  store i64 %storemerge, ptr %4, align 8, !tbaa !6
  %23 = tail call i64 @rb_obj_class(i64 noundef %2) #7
  %24 = call i64 @rb_class_new_instance(i32 noundef 1, ptr noundef nonnull %4, i64 noundef %23) #7
  call void @llvm.lifetime.end.p0(i64 8, ptr nonnull %4) #7
  ret i64 %24
}